; Function Attrs: mustprogress nounwind uwtable
define hidden void @_ZN2qe16i_solver_contextD2Ev(ptr nocapture noundef nonnull align 8 dereferenceable(48) %this) unnamed_addr #4 align 2 personality ptr @__gxx_personality_v0 {
entry:
  store ptr getelementptr inbounds ({ [16 x ptr] }, ptr @_ZTVN2qe16i_solver_contextE, i64 0, i32 0, i64 2), ptr %this, align 8
  %m_plugins = getelementptr inbounds i8, ptr %this, i64 40
  %0 = load ptr, ptr %m_plugins, align 8
  %cmp.i10 = icmp eq ptr %0, null
  br i1 %cmp.i10, label %_ZN10ptr_vectorIN2qe16qe_solver_pluginEED2Ev.exit, label %_ZNK6vectorIPN2qe16qe_solver_pluginELb0EjE4sizeEv.exit.thread

_ZNK6vectorIPN2qe16qe_solver_pluginELb0EjE4sizeEv.exit.thread: ; preds = %entry, %for.inc
  %1 = phi ptr [ %6, %for.inc ], [ %0, %entry ]
  %indvars.iv = phi i64 [ %indvars.iv.next, %for.inc ], [ 0, %entry ]
  %arrayidx.i = getelementptr inbounds i8, ptr %1, i64 -4
  %2 = load i32, ptr %arrayidx.i, align 4
  %3 = zext i32 %2 to i64
  %cmp7 = icmp ult i64 %indvars.iv, %3
  br i1 %cmp7, label %for.body, label %if.then.i.i.i

for.body:                                         ; preds = %_ZNK6vectorIPN2qe16qe_solver_pluginELb0EjE4sizeEv.exit.thread
  %arrayidx.i3 = getelementptr inbounds ptr, ptr %1, i64 %indvars.iv
  %4 = load ptr, ptr %arrayidx.i3, align 8
  %cmp.i4 = icmp eq ptr %4, null
  br i1 %cmp.i4, label %for.inc, label %if.end.i5

if.end.i5:                                        ; preds = %for.body
  %vtable.i = load ptr, ptr %4, align 8
  %5 = load ptr, ptr %vtable.i, align 8
  tail call void %5(ptr noundef nonnull align 8 dereferenceable(32) %4) #24
  invoke void @_ZN6memory10deallocateEPv(ptr noundef nonnull %4)
          to label %if.end.i5.for.inc_crit_edge unwind label %terminate.lpad

if.end.i5.for.inc_crit_edge:                      ; preds = %if.end.i5
  %.pre = load ptr, ptr %m_plugins, align 8
  br label %for.inc

for.inc:                                          ; preds = %if.end.i5.for.inc_crit_edge, %for.body
  %6 = phi ptr [ %.pre, %if.end.i5.for.inc_crit_edge ], [ %1, %for.body ]
  %indvars.iv.next = add nuw nsw i64 %indvars.iv, 1
  %cmp.i = icmp eq ptr %6, null
  br i1 %cmp.i, label %_ZN10ptr_vectorIN2qe16qe_solver_pluginEED2Ev.exit, label %_ZNK6vectorIPN2qe16qe_solver_pluginELb0EjE4sizeEv.exit.thread, !llvm.loop !23

if.then.i.i.i:                                    ; preds = %_ZNK6vectorIPN2qe16qe_solver_pluginELb0EjE4sizeEv.exit.thread
  %add.ptr.i.i.i.i = getelementptr inbounds i8, ptr %1, i64 -8
  invoke void @_ZN6memory10deallocateEPv(ptr noundef nonnull %add.ptr.i.i.i.i)
          to label %_ZN10ptr_vectorIN2qe16qe_solver_pluginEED2Ev.exit unwind label %terminate.lpad.i.i

terminate.lpad.i.i:                               ; preds = %if.then.i.i.i
  %7 = landingpad { ptr, i32 }
          catch ptr null
  %8 = extractvalue { ptr, i32 } %7, 0
  tail call void @__clang_call_terminate(ptr %8) #25
  unreachable

_ZN10ptr_vectorIN2qe16qe_solver_pluginEED2Ev.exit: ; preds = %for.inc, %entry, %if.then.i.i.i
  ret void

terminate.lpad:                                   ; preds = %if.end.i5
  %9 = landingpad { ptr, i32 }
          catch ptr null
  %10 = extractvalue { ptr, i32 } %9, 0
  tail call void @__clang_call_terminate(ptr %10) #25
  unreachable
}